; Function Attrs: mustprogress uwtable
define noundef nonnull align 8 dereferenceable(32) ptr @_ZN13sentencepiece26TrainerSpec_ModelType_NameB5cxx11ENS_21TrainerSpec_ModelTypeE(i32 noundef %0) local_unnamed_addr #3 personality ptr @__gxx_personality_v0 {
  %2 = load atomic i8, ptr @_ZGVZN13sentencepiece26TrainerSpec_ModelType_NameB5cxx11ENS_21TrainerSpec_ModelTypeEE5dummy acquire, align 8
  %3 = icmp eq i8 %2, 0
  br i1 %3, label %4, label %11, !prof !34

4:                                                ; preds = %1
  %5 = tail call i32 @__cxa_guard_acquire(ptr nonnull @_ZGVZN13sentencepiece26TrainerSpec_ModelType_NameB5cxx11ENS_21TrainerSpec_ModelTypeEE5dummy) #25
  %.not = icmp eq i32 %5, 0
  br i1 %.not, label %11, label %6

6:                                                ; preds = %4
  %7 = invoke noundef zeroext i1 @_ZN6google8protobuf8internal21InitializeEnumStringsEPKNS1_9EnumEntryEPKimPNS1_21ExplicitlyConstructedINSt7__cxx1112basic_stringIcSt11char_traitsIcESaIcEEEEE(ptr noundef nonnull @_ZN13sentencepieceL29TrainerSpec_ModelType_entriesE, ptr noundef nonnull @_ZN13sentencepieceL39TrainerSpec_ModelType_entries_by_numberE, i64 noundef 4, ptr noundef nonnull @_ZN13sentencepieceL29TrainerSpec_ModelType_stringsB5cxx11E)
          to label %8 unwind label %22

8:                                                ; preds = %6
  %9 = zext i1 %7 to i8
  store i8 %9, ptr @_ZZN13sentencepiece26TrainerSpec_ModelType_NameB5cxx11ENS_21TrainerSpec_ModelTypeEE5dummy, align 1, !tbaa !35
  %10 = tail call ptr @llvm.invariant.start.p0(i64 1, ptr nonnull @_ZZN13sentencepiece26TrainerSpec_ModelType_NameB5cxx11ENS_21TrainerSpec_ModelTypeEE5dummy)
  tail call void @__cxa_guard_release(ptr nonnull @_ZGVZN13sentencepiece26TrainerSpec_ModelType_NameB5cxx11ENS_21TrainerSpec_ModelTypeEE5dummy) #25
  br label %11

11:                                               ; preds = %8, %4, %1
  %12 = tail call noundef i32 @_ZN6google8protobuf8internal14LookUpEnumNameEPKNS1_9EnumEntryEPKimi(ptr noundef nonnull @_ZN13sentencepieceL29TrainerSpec_ModelType_entriesE, ptr noundef nonnull @_ZN13sentencepieceL39TrainerSpec_ModelType_entries_by_numberE, i64 noundef 4, i32 noundef %0)
  %13 = icmp eq i32 %12, -1
  br i1 %13, label %14, label %18

14:                                               ; preds = %11
  %15 = load atomic i8, ptr @_ZN6google8protobuf8internal28init_protobuf_defaults_stateE acquire, align 1
  %16 = trunc i8 %15 to i1
  br i1 %16, label %_ZN6google8protobuf8internal14GetEmptyStringB5cxx11Ev.exit, label %17, !prof !10

17:                                               ; preds = %14
  tail call void @_ZN6google8protobuf8internal24InitProtobufDefaultsSlowEv()
  br label %_ZN6google8protobuf8internal14GetEmptyStringB5cxx11Ev.exit

18:                                               ; preds = %11
  %19 = sext i32 %12 to i64
  %20 = getelementptr inbounds [4 x %"class.google::protobuf::internal::ExplicitlyConstructed.7"], ptr @_ZN13sentencepieceL29TrainerSpec_ModelType_stringsB5cxx11E, i64 0, i64 %19
  br label %_ZN6google8protobuf8internal14GetEmptyStringB5cxx11Ev.exit

_ZN6google8protobuf8internal14GetEmptyStringB5cxx11Ev.exit: ; preds = %17, %14, %18
  %21 = phi ptr [ %20, %18 ], [ @_ZN6google8protobuf8internal26fixed_address_empty_stringE, %14 ], [ @_ZN6google8protobuf8internal26fixed_address_empty_stringE, %17 ]
  ret ptr %21

22:                                               ; preds = %6
  %23 = landingpad { ptr, i32 }
          cleanup
  tail call void @__cxa_guard_abort(ptr nonnull @_ZGVZN13sentencepiece26TrainerSpec_ModelType_NameB5cxx11ENS_21TrainerSpec_ModelTypeEE5dummy) #25
  resume { ptr, i32 } %23
}